; Function Attrs: nounwind uwtable
define internal ptr @unpackiter_iternext(ptr noundef %0) #0 {
  %2 = getelementptr i8, ptr %0, i64 8
  %.val20 = load ptr, ptr %2, align 8, !tbaa !24
  %3 = tail call ptr @PyType_GetModule(ptr noundef %.val20) #7
  %4 = getelementptr i8, ptr %3, i64 32
  %.val = load ptr, ptr %4, align 8, !tbaa !3
  %5 = getelementptr inbounds nuw i8, ptr %0, i64 16
  %6 = load ptr, ptr %5, align 8, !tbaa !40
  %7 = icmp eq ptr %6, null
  br i1 %7, label %29, label %8

8:                                                ; preds = %1
  %9 = getelementptr inbounds nuw i8, ptr %0, i64 104
  %10 = load i64, ptr %9, align 8, !tbaa !41
  %11 = getelementptr inbounds nuw i8, ptr %0, i64 24
  %12 = getelementptr inbounds nuw i8, ptr %0, i64 40
  %13 = load i64, ptr %12, align 8, !tbaa !38
  %.not = icmp slt i64 %10, %13
  br i1 %.not, label %20, label %14

14:                                               ; preds = %8
  store ptr null, ptr %5, align 8, !tbaa !19
  %15 = load i32, ptr %6, align 8, !tbaa !18
  %.not.i = icmp sgt i32 %15, -1
  br i1 %.not.i, label %16, label %Py_DECREF.exit

16:                                               ; preds = %14
  %17 = add nsw i32 %15, -1
  store i32 %17, ptr %6, align 8, !tbaa !18
  %18 = icmp eq i32 %17, 0
  br i1 %18, label %19, label %Py_DECREF.exit

19:                                               ; preds = %16
  tail call void @_Py_Dealloc(ptr noundef nonnull %6) #7
  br label %Py_DECREF.exit

Py_DECREF.exit:                                   ; preds = %14, %16, %19
  tail call void @PyBuffer_Release(ptr noundef nonnull %11) #7
  br label %29

20:                                               ; preds = %8
  %21 = load ptr, ptr %11, align 8, !tbaa !90
  %22 = getelementptr i8, ptr %21, i64 %10
  %23 = tail call fastcc ptr @s_unpack_internal(ptr noundef nonnull %6, ptr noundef %22, ptr noundef %.val)
  %24 = load ptr, ptr %5, align 8, !tbaa !40
  %25 = getelementptr inbounds nuw i8, ptr %24, i64 16
  %26 = load i64, ptr %25, align 8, !tbaa !20
  %27 = load i64, ptr %9, align 8, !tbaa !41
  %28 = add i64 %27, %26
  store i64 %28, ptr %9, align 8, !tbaa !41
  br label %29

29:                                               ; preds = %1, %20, %Py_DECREF.exit
  %.0 = phi ptr [ null, %Py_DECREF.exit ], [ %23, %20 ], [ null, %1 ]
  ret ptr %.0
}